target datalayout = "e-m:e-p270:32:32-p271:32:32-p272:64:64-i64:64-i128:128-f80:128-n8:16:32:64-S128"
target triple = "x86_64-pc-linux-gnu"

%struct.Fra_Man_t_ = type { ptr, ptr, ptr, i32, ptr, i32, ptr, ptr, ptr, i32, ptr, ptr, ptr, ptr, i32, ptr, i64, i64, ptr, ptr, i32, ptr, i32, i32, i32, i32, i32, i32, i32, i32, i32, i32, i32, i32, i32, i32, i32, i32, i32, i32, i32, i64, i64, i64, i64, i64, i64, i64, i64, i64, i64, i64 }
%struct.Aig_Man_t_ = type { ptr, ptr, ptr, ptr, ptr, ptr, ptr, %struct.Aig_Obj_t_, i32, i32, i32, i32, i32, i32, [7 x i32], i32, ptr, i32, ptr, i32, ptr, i32, i32, i32, ptr, i32, i32, i32, i32, i32, ptr, ptr, i32, ptr, ptr, i32, ptr, ptr, i32, i32, i32, ptr, ptr, ptr, ptr, ptr, ptr, ptr, ptr, ptr, ptr, ptr, ptr, ptr, ptr, i32, ptr, ptr, ptr, ptr, i32, i64, i64, i64, ptr, ptr }
%struct.Aig_Obj_t_ = type { %union.anon, ptr, ptr, i64, i32, i32, %union.anon.0 }
%union.anon = type { ptr }
%union.anon.0 = type { ptr }
%struct.Vec_Ptr_t_ = type { i32, i32, ptr }

; Function Attrs: inlinehint nounwind uwtable
define internal ptr @Vec_PtrEntry(ptr noundef %0, i32 noundef %1) #4 {
  %3 = alloca ptr, align 8
  %4 = alloca i32, align 4
  store ptr %0, ptr %3, align 8, !tbaa !62
  store i32 %1, ptr %4, align 4, !tbaa !48
  %5 = load ptr, ptr %3, align 8, !tbaa !62
  %6 = getelementptr inbounds nuw %struct.Vec_Ptr_t_, ptr %5, i32 0, i32 2
  %7 = load ptr, ptr %6, align 8, !tbaa !66
  %8 = load i32, ptr %4, align 4, !tbaa !48
  %9 = sext i32 %8 to i64
  %10 = getelementptr inbounds ptr, ptr %7, i64 %9
  %11 = load ptr, ptr %10, align 8, !tbaa !67
  ret ptr %11
}

; Function Attrs: inlinehint nounwind uwtable
define internal i32 @Vec_PtrSize(ptr noundef %0) #4 {
  %2 = alloca ptr, align 8
  store ptr %0, ptr %2, align 8, !tbaa !62
  %3 = load ptr, ptr %2, align 8, !tbaa !62
  %4 = getelementptr inbounds nuw %struct.Vec_Ptr_t_, ptr %3, i32 0, i32 1
  %5 = load i32, ptr %4, align 4, !tbaa !63
  ret i32 %5
}

; Function Attrs: inlinehint nounwind uwtable
define internal void @Fra_ObjSetFraig(ptr noundef %0, i32 noundef %1, ptr noundef %2) #4 {
  %4 = alloca ptr, align 8
  %5 = alloca i32, align 4
  %6 = alloca ptr, align 8
  store ptr %0, ptr %4, align 8, !tbaa !57
  store i32 %1, ptr %5, align 4, !tbaa !48
  store ptr %2, ptr %6, align 8, !tbaa !57
  %7 = load ptr, ptr %6, align 8, !tbaa !57
  %8 = load ptr, ptr %4, align 8, !tbaa !57
  %9 = getelementptr inbounds nuw %struct.Aig_Obj_t_, ptr %8, i32 0, i32 6
  %10 = load ptr, ptr %9, align 8, !tbaa !58
  %11 = getelementptr inbounds nuw %struct.Fra_Man_t_, ptr %10, i32 0, i32 4
  %12 = load ptr, ptr %11, align 8, !tbaa !47
  %13 = load ptr, ptr %4, align 8, !tbaa !57
  %14 = getelementptr inbounds nuw %struct.Aig_Obj_t_, ptr %13, i32 0, i32 6
  %15 = load ptr, ptr %14, align 8, !tbaa !58
  %16 = getelementptr inbounds nuw %struct.Fra_Man_t_, ptr %15, i32 0, i32 3
  %17 = load i32, ptr %16, align 8, !tbaa !42
  %18 = load ptr, ptr %4, align 8, !tbaa !57
  %19 = getelementptr inbounds nuw %struct.Aig_Obj_t_, ptr %18, i32 0, i32 5
  %20 = load i32, ptr %19, align 4, !tbaa !79
  %21 = mul nsw i32 %17, %20
  %22 = load i32, ptr %5, align 4, !tbaa !48
  %23 = add nsw i32 %21, %22
  %24 = sext i32 %23 to i64
  %25 = getelementptr inbounds ptr, ptr %12, i64 %24
  store ptr %7, ptr %25, align 8, !tbaa !57
  ret void
}

; Function Attrs: inlinehint nounwind uwtable
define internal ptr @Aig_ManConst1(ptr noundef %0) #4 {
  %2 = alloca ptr, align 8
  store ptr %0, ptr %2, align 8, !tbaa !24
  %3 = load ptr, ptr %2, align 8, !tbaa !24
  %4 = getelementptr inbounds nuw %struct.Aig_Man_t_, ptr %3, i32 0, i32 6
  %5 = load ptr, ptr %4, align 8, !tbaa !80
  ret ptr %5
}

; Function Attrs: inlinehint nounwind uwtable
define internal ptr @Abc_UtilStrsav(ptr noundef %0) #4 {
  %2 = alloca ptr, align 8
  store ptr %0, ptr %2, align 8, !tbaa !78
  %3 = load ptr, ptr %2, align 8, !tbaa !78
  %4 = icmp ne ptr %3, null
  br i1 %4, label %5, label %13

5:                                                ; preds = %1
  %6 = load ptr, ptr %2, align 8, !tbaa !78
  %7 = call i64 @strlen(ptr noundef %6) #13
  %8 = add i64 %7, 1
  %9 = mul i64 1, %8
  %10 = call noalias ptr @malloc(i64 noundef %9) #11
  %11 = load ptr, ptr %2, align 8, !tbaa !78
  %12 = call ptr @strcpy(ptr noundef %10, ptr noundef %11) #10
  br label %14

13:                                               ; preds = %1
  br label %14

14:                                               ; preds = %13, %5
  %15 = phi ptr [ %12, %5 ], [ null, %13 ]
  ret ptr %15
}

; Function Attrs: inlinehint nounwind uwtable
define internal i32 @Aig_ManObjNumMax(ptr noundef %0) #4 {
  %2 = alloca ptr, align 8
  store ptr %0, ptr %2, align 8, !tbaa !24
  %3 = load ptr, ptr %2, align 8, !tbaa !24
  %4 = getelementptr inbounds nuw %struct.Aig_Man_t_, ptr %3, i32 0, i32 4
  %5 = load ptr, ptr %4, align 8, !tbaa !49
  %6 = call i32 @Vec_PtrSize(ptr noundef %5)
  ret i32 %6
}

; Function Attrs: nounwind uwtable
define ptr @Fra_ManPrepareComb(ptr noundef %0) #0 {
  %2 = alloca ptr, align 8
  %3 = alloca ptr, align 8
  %4 = alloca ptr, align 8
  %5 = alloca i32, align 4
  store ptr %0, ptr %2, align 8, !tbaa !26
  call void @llvm.lifetime.start.p0(i64 8, ptr %3) #10
  call void @llvm.lifetime.start.p0(i64 8, ptr %4) #10
  call void @llvm.lifetime.start.p0(i64 4, ptr %5) #10
  %6 = load ptr, ptr %2, align 8, !tbaa !26
  %7 = getelementptr inbounds nuw %struct.Fra_Man_t_, ptr %6, i32 0, i32 1
  %8 = load ptr, ptr %7, align 8, !tbaa !40
  %9 = call i32 @Aig_ManObjNumMax(ptr noundef %8)
  %10 = call ptr @Aig_ManStart(i32 noundef %9)
  store ptr %10, ptr %3, align 8, !tbaa !24
  %11 = load ptr, ptr %2, align 8, !tbaa !26
  %12 = getelementptr inbounds nuw %struct.Fra_Man_t_, ptr %11, i32 0, i32 1
  %13 = load ptr, ptr %12, align 8, !tbaa !40
  %14 = getelementptr inbounds nuw %struct.Aig_Man_t_, ptr %13, i32 0, i32 0
  %15 = load ptr, ptr %14, align 8, !tbaa !72
  %16 = call ptr @Abc_UtilStrsav(ptr noundef %15)
  %17 = load ptr, ptr %3, align 8, !tbaa !24
  %18 = getelementptr inbounds nuw %struct.Aig_Man_t_, ptr %17, i32 0, i32 0
  store ptr %16, ptr %18, align 8, !tbaa !72
  %19 = load ptr, ptr %2, align 8, !tbaa !26
  %20 = getelementptr inbounds nuw %struct.Fra_Man_t_, ptr %19, i32 0, i32 1
  %21 = load ptr, ptr %20, align 8, !tbaa !40
  %22 = getelementptr inbounds nuw %struct.Aig_Man_t_, ptr %21, i32 0, i32 1
  %23 = load ptr, ptr %22, align 8, !tbaa !73
  %24 = call ptr @Abc_UtilStrsav(ptr noundef %23)
  %25 = load ptr, ptr %3, align 8, !tbaa !24
  %26 = getelementptr inbounds nuw %struct.Aig_Man_t_, ptr %25, i32 0, i32 1
  store ptr %24, ptr %26, align 8, !tbaa !73
  %27 = load ptr, ptr %2, align 8, !tbaa !26
  %28 = getelementptr inbounds nuw %struct.Fra_Man_t_, ptr %27, i32 0, i32 1
  %29 = load ptr, ptr %28, align 8, !tbaa !40
  %30 = getelementptr inbounds nuw %struct.Aig_Man_t_, ptr %29, i32 0, i32 8
  %31 = load i32, ptr %30, align 8, !tbaa !61
  %32 = load ptr, ptr %3, align 8, !tbaa !24
  %33 = getelementptr inbounds nuw %struct.Aig_Man_t_, ptr %32, i32 0, i32 8
  store i32 %31, ptr %33, align 8, !tbaa !61
  %34 = load ptr, ptr %2, align 8, !tbaa !26
  %35 = getelementptr inbounds nuw %struct.Fra_Man_t_, ptr %34, i32 0, i32 1
  %36 = load ptr, ptr %35, align 8, !tbaa !40
  %37 = getelementptr inbounds nuw %struct.Aig_Man_t_, ptr %36, i32 0, i32 11
  %38 = load i32, ptr %37, align 4, !tbaa !74
  %39 = load ptr, ptr %3, align 8, !tbaa !24
  %40 = getelementptr inbounds nuw %struct.Aig_Man_t_, ptr %39, i32 0, i32 11
  store i32 %38, ptr %40, align 4, !tbaa !74
  %41 = load ptr, ptr %2, align 8, !tbaa !26
  %42 = getelementptr inbounds nuw %struct.Fra_Man_t_, ptr %41, i32 0, i32 1
  %43 = load ptr, ptr %42, align 8, !tbaa !40
  %44 = call ptr @Aig_ManConst1(ptr noundef %43)
  %45 = load ptr, ptr %3, align 8, !tbaa !24
  %46 = call ptr @Aig_ManConst1(ptr noundef %45)
  call void @Fra_ObjSetFraig(ptr noundef %44, i32 noundef 0, ptr noundef %46)
  store i32 0, ptr %5, align 4, !tbaa !48
  br label %47

47:                                               ; preds = %70, %1
  %48 = load i32, ptr %5, align 4, !tbaa !48
  %49 = load ptr, ptr %2, align 8, !tbaa !26
  %50 = getelementptr inbounds nuw %struct.Fra_Man_t_, ptr %49, i32 0, i32 1
  %51 = load ptr, ptr %50, align 8, !tbaa !40
  %52 = getelementptr inbounds nuw %struct.Aig_Man_t_, ptr %51, i32 0, i32 2
  %53 = load ptr, ptr %52, align 8, !tbaa !75
  %54 = call i32 @Vec_PtrSize(ptr noundef %53)
  %55 = icmp slt i32 %48, %54
  br i1 %55, label %56, label %64

56:                                               ; preds = %47
  %57 = load ptr, ptr %2, align 8, !tbaa !26
  %58 = getelementptr inbounds nuw %struct.Fra_Man_t_, ptr %57, i32 0, i32 1
  %59 = load ptr, ptr %58, align 8, !tbaa !40
  %60 = getelementptr inbounds nuw %struct.Aig_Man_t_, ptr %59, i32 0, i32 2
  %61 = load ptr, ptr %60, align 8, !tbaa !75
  %62 = load i32, ptr %5, align 4, !tbaa !48
  %63 = call ptr @Vec_PtrEntry(ptr noundef %61, i32 noundef %62)
  store ptr %63, ptr %4, align 8, !tbaa !57
  br label %64

64:                                               ; preds = %56, %47
  %65 = phi i1 [ false, %47 ], [ true, %56 ]
  br i1 %65, label %66, label %73

66:                                               ; preds = %64
  %67 = load ptr, ptr %4, align 8, !tbaa !57
  %68 = load ptr, ptr %3, align 8, !tbaa !24
  %69 = call ptr @Aig_ObjCreateCi(ptr noundef %68)
  call void @Fra_ObjSetFraig(ptr noundef %67, i32 noundef 0, ptr noundef %69)
  br label %70

70:                                               ; preds = %66
  %71 = load i32, ptr %5, align 4, !tbaa !48
  %72 = add nsw i32 %71, 1
  store i32 %72, ptr %5, align 4, !tbaa !48
  br label %47, !llvm.loop !76

73:                                               ; preds = %64
  store i32 0, ptr %5, align 4, !tbaa !48
  br label %74

74:                                               ; preds = %98, %73
  %75 = load i32, ptr %5, align 4, !tbaa !48
  %76 = load ptr, ptr %3, align 8, !tbaa !24
  %77 = getelementptr inbounds nuw %struct.Aig_Man_t_, ptr %76, i32 0, i32 4
  %78 = load ptr, ptr %77, align 8, !tbaa !49
  %79 = call i32 @Vec_PtrSize(ptr noundef %78)
  %80 = icmp slt i32 %75, %79
  br i1 %80, label %81, label %87

81:                                               ; preds = %74
  %82 = load ptr, ptr %3, align 8, !tbaa !24
  %83 = getelementptr inbounds nuw %struct.Aig_Man_t_, ptr %82, i32 0, i32 4
  %84 = load ptr, ptr %83, align 8, !tbaa !49
  %85 = load i32, ptr %5, align 4, !tbaa !48
  %86 = call ptr @Vec_PtrEntry(ptr noundef %84, i32 noundef %85)
  store ptr %86, ptr %4, align 8, !tbaa !57
  br label %87

87:                                               ; preds = %81, %74
  %88 = phi i1 [ false, %74 ], [ true, %81 ]
  br i1 %88, label %89, label %101

89:                                               ; preds = %87
  %90 = load ptr, ptr %4, align 8, !tbaa !57
  %91 = icmp eq ptr %90, null
  br i1 %91, label %92, label %93

92:                                               ; preds = %89
  br label %97

93:                                               ; preds = %89
  %94 = load ptr, ptr %2, align 8, !tbaa !26
  %95 = load ptr, ptr %4, align 8, !tbaa !57
  %96 = getelementptr inbounds nuw %struct.Aig_Obj_t_, ptr %95, i32 0, i32 6
  store ptr %94, ptr %96, align 8, !tbaa !58
  br label %97

97:                                               ; preds = %93, %92
  br label %98

98:                                               ; preds = %97
  %99 = load i32, ptr %5, align 4, !tbaa !48
  %100 = add nsw i32 %99, 1
  store i32 %100, ptr %5, align 4, !tbaa !48
  br label %74, !llvm.loop !77

101:                                              ; preds = %87
  %102 = load ptr, ptr %2, align 8, !tbaa !26
  %103 = getelementptr inbounds nuw %struct.Fra_Man_t_, ptr %102, i32 0, i32 5
  %104 = load i32, ptr %103, align 8, !tbaa !41
  %105 = load ptr, ptr %2, align 8, !tbaa !26
  %106 = getelementptr inbounds nuw %struct.Fra_Man_t_, ptr %105, i32 0, i32 20
  store i32 %104, ptr %106, align 8, !tbaa !68
  %107 = load ptr, ptr %2, align 8, !tbaa !26
  %108 = getelementptr inbounds nuw %struct.Fra_Man_t_, ptr %107, i32 0, i32 20
  %109 = load i32, ptr %108, align 8, !tbaa !68
  %110 = sext i32 %109 to i64
  %111 = mul i64 8, %110
  %112 = call noalias ptr @malloc(i64 noundef %111) #11
  %113 = load ptr, ptr %2, align 8, !tbaa !26
  %114 = getelementptr inbounds nuw %struct.Fra_Man_t_, ptr %113, i32 0, i32 18
  store ptr %112, ptr %114, align 8, !tbaa !69
  %115 = load ptr, ptr %2, align 8, !tbaa !26
  %116 = getelementptr inbounds nuw %struct.Fra_Man_t_, ptr %115, i32 0, i32 18
  %117 = load ptr, ptr %116, align 8, !tbaa !69
  %118 = load ptr, ptr %2, align 8, !tbaa !26
  %119 = getelementptr inbounds nuw %struct.Fra_Man_t_, ptr %118, i32 0, i32 20
  %120 = load i32, ptr %119, align 8, !tbaa !68
  %121 = sext i32 %120 to i64
  %122 = mul i64 8, %121
  call void @llvm.memset.p0.i64(ptr align 8 %117, i8 0, i64 %122, i1 false)
  %123 = load ptr, ptr %2, align 8, !tbaa !26
  %124 = getelementptr inbounds nuw %struct.Fra_Man_t_, ptr %123, i32 0, i32 20
  %125 = load i32, ptr %124, align 8, !tbaa !68
  %126 = sext i32 %125 to i64
  %127 = mul i64 4, %126
  %128 = call noalias ptr @malloc(i64 noundef %127) #11
  %129 = load ptr, ptr %2, align 8, !tbaa !26
  %130 = getelementptr inbounds nuw %struct.Fra_Man_t_, ptr %129, i32 0, i32 19
  store ptr %128, ptr %130, align 8, !tbaa !71
  %131 = load ptr, ptr %2, align 8, !tbaa !26
  %132 = getelementptr inbounds nuw %struct.Fra_Man_t_, ptr %131, i32 0, i32 19
  %133 = load ptr, ptr %132, align 8, !tbaa !71
  %134 = load ptr, ptr %2, align 8, !tbaa !26
  %135 = getelementptr inbounds nuw %struct.Fra_Man_t_, ptr %134, i32 0, i32 20
  %136 = load i32, ptr %135, align 8, !tbaa !68
  %137 = sext i32 %136 to i64
  %138 = mul i64 4, %137
  call void @llvm.memset.p0.i64(ptr align 4 %133, i8 0, i64 %138, i1 false)
  %139 = load ptr, ptr %3, align 8, !tbaa !24
  call void @llvm.lifetime.end.p0(i64 4, ptr %5) #10
  call void @llvm.lifetime.end.p0(i64 8, ptr %4) #10
  call void @llvm.lifetime.end.p0(i64 8, ptr %3) #10
  ret ptr %139
}