; Function Attrs: nounwind uwtable
define ptr @Fra_ManPrepareComb(ptr noundef %0) local_unnamed_addr #2 {
  %2 = getelementptr inbounds nuw i8, ptr %0, i64 8
  %3 = load ptr, ptr %2, align 8, !tbaa !34
  %4 = getelementptr i8, ptr %3, i64 32
  %.val40 = load ptr, ptr %4, align 8, !tbaa !35
  %5 = getelementptr i8, ptr %.val40, i64 4
  %.val40.val = load i32, ptr %5, align 4, !tbaa !43
  %6 = tail call ptr @Aig_ManStart(i32 noundef %.val40.val) #15
  %7 = load ptr, ptr %2, align 8, !tbaa !34
  %8 = load ptr, ptr %7, align 8, !tbaa !65
  %.not.i = icmp eq ptr %8, null
  br i1 %.not.i, label %Abc_UtilStrsav.exit, label %9

9:                                                ; preds = %1
  %10 = tail call i64 @strlen(ptr noundef nonnull readonly dereferenceable(1) %8) #17
  %11 = add i64 %10, 1
  %12 = tail call noalias ptr @malloc(i64 noundef %11) #14
  %13 = tail call ptr @strcpy(ptr noundef nonnull dereferenceable(1) %12, ptr noundef nonnull readonly dereferenceable(1) %8) #15
  br label %Abc_UtilStrsav.exit

Abc_UtilStrsav.exit:                              ; preds = %1, %9
  %14 = phi ptr [ %12, %9 ], [ null, %1 ]
  store ptr %14, ptr %6, align 8, !tbaa !65
  %15 = getelementptr inbounds nuw i8, ptr %7, i64 8
  %16 = load ptr, ptr %15, align 8, !tbaa !66
  %.not.i51 = icmp eq ptr %16, null
  br i1 %.not.i51, label %Abc_UtilStrsav.exit52, label %17

17:                                               ; preds = %Abc_UtilStrsav.exit
  %18 = tail call i64 @strlen(ptr noundef nonnull readonly dereferenceable(1) %16) #17
  %19 = add i64 %18, 1
  %20 = tail call noalias ptr @malloc(i64 noundef %19) #14
  %21 = tail call ptr @strcpy(ptr noundef nonnull dereferenceable(1) %20, ptr noundef nonnull readonly dereferenceable(1) %16) #15
  br label %Abc_UtilStrsav.exit52

Abc_UtilStrsav.exit52:                            ; preds = %Abc_UtilStrsav.exit, %17
  %22 = phi ptr [ %20, %17 ], [ null, %Abc_UtilStrsav.exit ]
  %23 = getelementptr inbounds nuw i8, ptr %6, i64 8
  store ptr %22, ptr %23, align 8, !tbaa !66
  %24 = getelementptr inbounds nuw i8, ptr %7, i64 104
  %25 = load i32, ptr %24, align 8, !tbaa !48
  %26 = getelementptr inbounds nuw i8, ptr %6, i64 104
  store i32 %25, ptr %26, align 8, !tbaa !48
  %27 = getelementptr inbounds nuw i8, ptr %7, i64 116
  %28 = load i32, ptr %27, align 4, !tbaa !67
  %29 = getelementptr inbounds nuw i8, ptr %6, i64 116
  store i32 %28, ptr %29, align 4, !tbaa !67
  %30 = getelementptr i8, ptr %7, i64 48
  %.val43 = load ptr, ptr %30, align 8, !tbaa !68
  %31 = getelementptr i8, ptr %6, i64 48
  %.val44 = load ptr, ptr %31, align 8, !tbaa !68
  %32 = getelementptr i8, ptr %.val43, i64 36
  %.val45 = load i32, ptr %32, align 4, !tbaa !69
  %33 = getelementptr i8, ptr %.val43, i64 40
  %.val46 = load ptr, ptr %33, align 8, !tbaa !57
  %34 = getelementptr i8, ptr %.val46, i64 24
  %.val46.val = load i32, ptr %34, align 8, !tbaa !46
  %35 = getelementptr i8, ptr %.val46, i64 32
  %.val46.val50 = load ptr, ptr %35, align 8, !tbaa !55
  %36 = mul nsw i32 %.val46.val, %.val45
  %37 = sext i32 %36 to i64
  %38 = getelementptr inbounds ptr, ptr %.val46.val50, i64 %37
  store ptr %.val44, ptr %38, align 8, !tbaa !70
  %39 = getelementptr inbounds nuw i8, ptr %7, i64 16
  %40 = load ptr, ptr %39, align 8, !tbaa !71
  %41 = getelementptr i8, ptr %40, i64 4
  %.val3953 = load i32, ptr %41, align 4, !tbaa !43
  %42 = icmp sgt i32 %.val3953, 0
  br i1 %42, label %.lr.ph, label %.critedge.preheader

.critedge.preheader:                              ; preds = %.lr.ph, %Abc_UtilStrsav.exit52
  %43 = getelementptr inbounds nuw i8, ptr %6, i64 32
  %44 = load ptr, ptr %43, align 8, !tbaa !35
  %45 = getelementptr i8, ptr %44, i64 4
  %.val55 = load i32, ptr %45, align 4, !tbaa !43
  %46 = icmp sgt i32 %.val55, 0
  br i1 %46, label %.lr.ph57, label %.critedge2

.lr.ph:                                           ; preds = %Abc_UtilStrsav.exit52, %.lr.ph
  %indvars.iv = phi i64 [ %indvars.iv.next, %.lr.ph ], [ 0, %Abc_UtilStrsav.exit52 ]
  %47 = phi ptr [ %61, %.lr.ph ], [ %40, %Abc_UtilStrsav.exit52 ]
  %48 = getelementptr i8, ptr %47, i64 8
  %.val42 = load ptr, ptr %48, align 8, !tbaa !52
  %49 = getelementptr inbounds nuw ptr, ptr %.val42, i64 %indvars.iv
  %50 = load ptr, ptr %49, align 8, !tbaa !56
  %51 = tail call ptr @Aig_ObjCreateCi(ptr noundef nonnull %6) #15
  %52 = getelementptr i8, ptr %50, i64 36
  %.val47 = load i32, ptr %52, align 4, !tbaa !69
  %53 = getelementptr i8, ptr %50, i64 40
  %.val48 = load ptr, ptr %53, align 8, !tbaa !57
  %54 = getelementptr i8, ptr %.val48, i64 24
  %.val48.val = load i32, ptr %54, align 8, !tbaa !46
  %55 = getelementptr i8, ptr %.val48, i64 32
  %.val48.val49 = load ptr, ptr %55, align 8, !tbaa !55
  %56 = mul nsw i32 %.val48.val, %.val47
  %57 = sext i32 %56 to i64
  %58 = getelementptr inbounds ptr, ptr %.val48.val49, i64 %57
  store ptr %51, ptr %58, align 8, !tbaa !70
  %indvars.iv.next = add nuw nsw i64 %indvars.iv, 1
  %59 = load ptr, ptr %2, align 8, !tbaa !34
  %60 = getelementptr inbounds nuw i8, ptr %59, i64 16
  %61 = load ptr, ptr %60, align 8, !tbaa !71
  %62 = getelementptr i8, ptr %61, i64 4
  %.val39 = load i32, ptr %62, align 4, !tbaa !43
  %63 = sext i32 %.val39 to i64
  %64 = icmp slt i64 %indvars.iv.next, %63
  br i1 %64, label %.lr.ph, label %.critedge.preheader, !llvm.loop !72

.lr.ph57:                                         ; preds = %.critedge.preheader, %.critedge
  %65 = phi ptr [ %72, %.critedge ], [ %44, %.critedge.preheader ]
  %indvars.iv59 = phi i64 [ %indvars.iv.next60, %.critedge ], [ 0, %.critedge.preheader ]
  %66 = getelementptr i8, ptr %65, i64 8
  %.val41 = load ptr, ptr %66, align 8, !tbaa !52
  %67 = getelementptr inbounds nuw ptr, ptr %.val41, i64 %indvars.iv59
  %68 = load ptr, ptr %67, align 8, !tbaa !56
  %69 = icmp eq ptr %68, null
  br i1 %69, label %.critedge, label %70

70:                                               ; preds = %.lr.ph57
  %71 = getelementptr inbounds nuw i8, ptr %68, i64 40
  store ptr %0, ptr %71, align 8, !tbaa !57
  %.pre = load ptr, ptr %43, align 8, !tbaa !35
  br label %.critedge

.critedge:                                        ; preds = %70, %.lr.ph57
  %72 = phi ptr [ %.pre, %70 ], [ %65, %.lr.ph57 ]
  %indvars.iv.next60 = add nuw nsw i64 %indvars.iv59, 1
  %73 = getelementptr i8, ptr %72, i64 4
  %.val = load i32, ptr %73, align 4, !tbaa !43
  %74 = sext i32 %.val to i64
  %75 = icmp slt i64 %indvars.iv.next60, %74
  br i1 %75, label %.lr.ph57, label %.critedge2, !llvm.loop !73

.critedge2:                                       ; preds = %.critedge, %.critedge.preheader
  %76 = getelementptr inbounds nuw i8, ptr %0, i64 40
  %77 = load i32, ptr %76, align 8, !tbaa !45
  %78 = getelementptr inbounds nuw i8, ptr %0, i64 160
  store i32 %77, ptr %78, align 8, !tbaa !60
  %79 = sext i32 %77 to i64
  %80 = shl nsw i64 %79, 3
  %calloc = tail call ptr @calloc(i64 1, i64 %80)
  %81 = getelementptr inbounds nuw i8, ptr %0, i64 144
  store ptr %calloc, ptr %81, align 8, !tbaa !61
  %82 = shl nsw i64 %79, 2
  %calloc62 = tail call ptr @calloc(i64 1, i64 %82)
  %83 = getelementptr inbounds nuw i8, ptr %0, i64 152
  store ptr %calloc62, ptr %83, align 8, !tbaa !64
  ret ptr %6
}